; Function Attrs: mustprogress uwtable
define noundef nonnull align 8 dereferenceable(205) ptr @_ZN5Ipopt25IpoptCalculatedQuantities7Tmp_s_UEv(ptr noundef nonnull align 8 captures(none) dereferenceable(2185) %0) local_unnamed_addr #6 align 2 personality ptr @__gxx_personality_v0 {
  %2 = alloca %"class.Ipopt::SmartPtr.44", align 8
  %3 = getelementptr inbounds nuw i8, ptr %0, i64 2176
  %4 = load ptr, ptr %3, align 8, !tbaa !81
  %.not = icmp eq ptr %4, null
  br i1 %.not, label %5, label %56

5:                                                ; preds = %1
  call void @llvm.lifetime.start.p0(i64 8, ptr nonnull %2) #26
  %6 = getelementptr inbounds nuw i8, ptr %0, i64 16
  %7 = load ptr, ptr %6, align 8, !tbaa !21
  %8 = load ptr, ptr %7, align 8, !tbaa !16
  %9 = getelementptr inbounds nuw i8, ptr %8, i64 144
  %10 = load ptr, ptr %9, align 8
  call void %10(ptr dead_on_unwind nonnull writable sret(%"class.Ipopt::SmartPtr.44") align 8 %2, ptr noundef nonnull align 8 dereferenceable(24) %7)
  %11 = load ptr, ptr %2, align 8, !tbaa !10
  %12 = getelementptr inbounds nuw i8, ptr %11, i64 56
  %13 = load ptr, ptr %12, align 8, !tbaa !105
  %14 = load ptr, ptr %13, align 8, !tbaa !16
  %15 = getelementptr inbounds nuw i8, ptr %14, i64 16
  %16 = load ptr, ptr %15, align 8
  %17 = invoke noundef ptr %16(ptr noundef nonnull align 8 dereferenceable(16) %13)
          to label %_ZNK5Ipopt6Vector7MakeNewEv.exit unwind label %44

_ZNK5Ipopt6Vector7MakeNewEv.exit:                 ; preds = %5
  %.not.i.i = icmp eq ptr %17, null
  br i1 %.not.i.i, label %22, label %18

18:                                               ; preds = %_ZNK5Ipopt6Vector7MakeNewEv.exit
  %19 = getelementptr inbounds nuw i8, ptr %17, i64 8
  %20 = load i32, ptr %19, align 8, !tbaa !13
  %21 = add nsw i32 %20, 1
  store i32 %21, ptr %19, align 8, !tbaa !13
  br label %22

22:                                               ; preds = %18, %_ZNK5Ipopt6Vector7MakeNewEv.exit
  %23 = load ptr, ptr %3, align 8, !tbaa !81
  %.not.i.i.i = icmp eq ptr %23, null
  br i1 %.not.i.i.i, label %33, label %24

24:                                               ; preds = %22
  %25 = getelementptr inbounds nuw i8, ptr %23, i64 8
  %26 = load i32, ptr %25, align 8, !tbaa !13
  %27 = add nsw i32 %26, -1
  store i32 %27, ptr %25, align 8, !tbaa !13
  %28 = icmp eq i32 %27, 0
  br i1 %28, label %29, label %33

29:                                               ; preds = %24
  %30 = load ptr, ptr %23, align 8, !tbaa !16
  %31 = getelementptr inbounds nuw i8, ptr %30, i64 8
  %32 = load ptr, ptr %31, align 8
  call void %32(ptr noundef nonnull align 8 dereferenceable(205) %23) #26
  br label %33

33:                                               ; preds = %29, %24, %22
  store ptr %17, ptr %3, align 8, !tbaa !81
  %34 = load ptr, ptr %2, align 8, !tbaa !10
  %.not.i.i2 = icmp eq ptr %34, null
  br i1 %.not.i.i2, label %_ZN5Ipopt8SmartPtrIKNS_6VectorEED2Ev.exit, label %35

35:                                               ; preds = %33
  %36 = getelementptr inbounds nuw i8, ptr %34, i64 8
  %37 = load i32, ptr %36, align 8, !tbaa !13
  %38 = add nsw i32 %37, -1
  store i32 %38, ptr %36, align 8, !tbaa !13
  %39 = icmp eq i32 %38, 0
  br i1 %39, label %40, label %_ZN5Ipopt8SmartPtrIKNS_6VectorEED2Ev.exit

40:                                               ; preds = %35
  %41 = load ptr, ptr %34, align 8, !tbaa !16
  %42 = getelementptr inbounds nuw i8, ptr %41, i64 8
  %43 = load ptr, ptr %42, align 8
  call void %43(ptr noundef nonnull align 8 dereferenceable(205) %34) #26
  %.pre.pre = load ptr, ptr %3, align 8, !tbaa !81
  br label %_ZN5Ipopt8SmartPtrIKNS_6VectorEED2Ev.exit

_ZN5Ipopt8SmartPtrIKNS_6VectorEED2Ev.exit:        ; preds = %33, %35, %40
  %.pre = phi ptr [ %17, %33 ], [ %17, %35 ], [ %.pre.pre, %40 ]
  call void @llvm.lifetime.end.p0(i64 8, ptr nonnull %2) #26
  br label %56

44:                                               ; preds = %5
  %45 = landingpad { ptr, i32 }
          cleanup
  %46 = load ptr, ptr %2, align 8, !tbaa !10
  %.not.i.i3 = icmp eq ptr %46, null
  br i1 %.not.i.i3, label %_ZN5Ipopt8SmartPtrIKNS_6VectorEED2Ev.exit4, label %47

47:                                               ; preds = %44
  %48 = getelementptr inbounds nuw i8, ptr %46, i64 8
  %49 = load i32, ptr %48, align 8, !tbaa !13
  %50 = add nsw i32 %49, -1
  store i32 %50, ptr %48, align 8, !tbaa !13
  %51 = icmp eq i32 %50, 0
  br i1 %51, label %52, label %_ZN5Ipopt8SmartPtrIKNS_6VectorEED2Ev.exit4

52:                                               ; preds = %47
  %53 = load ptr, ptr %46, align 8, !tbaa !16
  %54 = getelementptr inbounds nuw i8, ptr %53, i64 8
  %55 = load ptr, ptr %54, align 8
  call void %55(ptr noundef nonnull align 8 dereferenceable(205) %46) #26
  br label %_ZN5Ipopt8SmartPtrIKNS_6VectorEED2Ev.exit4

_ZN5Ipopt8SmartPtrIKNS_6VectorEED2Ev.exit4:       ; preds = %44, %47, %52
  call void @llvm.lifetime.end.p0(i64 8, ptr nonnull %2) #26
  resume { ptr, i32 } %45

56:                                               ; preds = %_ZN5Ipopt8SmartPtrIKNS_6VectorEED2Ev.exit, %1
  %57 = phi ptr [ %.pre, %_ZN5Ipopt8SmartPtrIKNS_6VectorEED2Ev.exit ], [ %4, %1 ]
  ret ptr %57
}